; Function Attrs: inlinehint mustprogress nounwind uwtable
define internal fastcc void @"_ZZN5boost3log11v2_mt_posix5sinks9anonymous23parse_file_name_patternERKNS_10filesystem4pathERS5_S8_RNS1_3aux14light_functionIFNSt7__cxx1112basic_stringIcSt11char_traitsIcESaIcEEEjEEEEN3$_1D2Ev"(ptr noundef nonnull align 8 dereferenceable(832) %0) unnamed_addr #5 align 2 personality ptr @__gxx_personality_v0 {
  %2 = getelementptr inbounds nuw i8, ptr %0, i64 800
  %3 = load ptr, ptr %2, align 8, !tbaa !13
  %4 = getelementptr inbounds nuw i8, ptr %0, i64 816
  %5 = icmp eq ptr %3, %4
  br i1 %5, label %_ZNKSt7__cxx1112basic_stringIcSt11char_traitsIcESaIcEE11_M_is_localEv.exit.thread.i.i, label %_ZNKSt7__cxx1112basic_stringIcSt11char_traitsIcESaIcEE11_M_is_localEv.exit.i.i

_ZNKSt7__cxx1112basic_stringIcSt11char_traitsIcESaIcEE11_M_is_localEv.exit.thread.i.i: ; preds = %1
  %6 = getelementptr inbounds nuw i8, ptr %0, i64 808
  %7 = load i64, ptr %6, align 8, !tbaa !16
  %8 = icmp ult i64 %7, 16
  tail call void @llvm.assume(i1 %8)
  br label %_ZNSt7__cxx1112basic_stringIcSt11char_traitsIcESaIcEED2Ev.exit

_ZNKSt7__cxx1112basic_stringIcSt11char_traitsIcESaIcEE11_M_is_localEv.exit.i.i: ; preds = %1
  %9 = load i64, ptr %4, align 8, !tbaa !15
  %10 = add i64 %9, 1
  tail call void @_ZdlPvm(ptr noundef %3, i64 noundef %10) #32
  br label %_ZNSt7__cxx1112basic_stringIcSt11char_traitsIcESaIcEED2Ev.exit

_ZNSt7__cxx1112basic_stringIcSt11char_traitsIcESaIcEED2Ev.exit: ; preds = %_ZNKSt7__cxx1112basic_stringIcSt11char_traitsIcESaIcEE11_M_is_localEv.exit.thread.i.i, %_ZNKSt7__cxx1112basic_stringIcSt11char_traitsIcESaIcEE11_M_is_localEv.exit.i.i
  %11 = getelementptr inbounds nuw i8, ptr %0, i64 424
  %12 = load ptr, ptr @_ZTTNSt7__cxx1119basic_ostringstreamIcSt11char_traitsIcESaIcEEE, align 8
  store ptr %12, ptr %11, align 8, !tbaa !49
  %13 = load ptr, ptr getelementptr inbounds (i8, ptr @_ZTTNSt7__cxx1119basic_ostringstreamIcSt11char_traitsIcESaIcEEE, i64 24), align 8
  %14 = getelementptr i8, ptr %12, i64 -24
  %15 = load i64, ptr %14, align 8
  %16 = getelementptr inbounds i8, ptr %11, i64 %15
  store ptr %13, ptr %16, align 8, !tbaa !49
  %17 = getelementptr inbounds nuw i8, ptr %0, i64 432
  store ptr getelementptr inbounds inrange(-16, 112) (i8, ptr @_ZTVNSt7__cxx1115basic_stringbufIcSt11char_traitsIcESaIcEEE, i64 16), ptr %17, align 8, !tbaa !49
  %18 = getelementptr inbounds nuw i8, ptr %0, i64 504
  %19 = load ptr, ptr %18, align 8, !tbaa !13
  %20 = getelementptr inbounds nuw i8, ptr %0, i64 520
  %21 = icmp eq ptr %19, %20
  br i1 %21, label %_ZNKSt7__cxx1112basic_stringIcSt11char_traitsIcESaIcEE11_M_is_localEv.exit.thread.i.i.i.i.i.i, label %_ZNKSt7__cxx1112basic_stringIcSt11char_traitsIcESaIcEE11_M_is_localEv.exit.i.i.i.i.i.i

_ZNKSt7__cxx1112basic_stringIcSt11char_traitsIcESaIcEE11_M_is_localEv.exit.thread.i.i.i.i.i.i: ; preds = %_ZNSt7__cxx1112basic_stringIcSt11char_traitsIcESaIcEED2Ev.exit
  %22 = getelementptr inbounds nuw i8, ptr %0, i64 512
  %23 = load i64, ptr %22, align 8, !tbaa !16
  %24 = icmp ult i64 %23, 16
  tail call void @llvm.assume(i1 %24)
  br label %_ZNSt7__cxx1119basic_ostringstreamIcSt11char_traitsIcESaIcEED1Ev.exit.i

_ZNKSt7__cxx1112basic_stringIcSt11char_traitsIcESaIcEE11_M_is_localEv.exit.i.i.i.i.i.i: ; preds = %_ZNSt7__cxx1112basic_stringIcSt11char_traitsIcESaIcEED2Ev.exit
  %25 = load i64, ptr %20, align 8, !tbaa !15
  %26 = add i64 %25, 1
  tail call void @_ZdlPvm(ptr noundef %19, i64 noundef %26) #32
  br label %_ZNSt7__cxx1119basic_ostringstreamIcSt11char_traitsIcESaIcEED1Ev.exit.i

_ZNSt7__cxx1119basic_ostringstreamIcSt11char_traitsIcESaIcEED1Ev.exit.i: ; preds = %_ZNKSt7__cxx1112basic_stringIcSt11char_traitsIcESaIcEE11_M_is_localEv.exit.i.i.i.i.i.i, %_ZNKSt7__cxx1112basic_stringIcSt11char_traitsIcESaIcEE11_M_is_localEv.exit.thread.i.i.i.i.i.i
  store ptr getelementptr inbounds inrange(-16, 112) (i8, ptr @_ZTVSt15basic_streambufIcSt11char_traitsIcEE, i64 16), ptr %17, align 8, !tbaa !49
  %27 = getelementptr inbounds nuw i8, ptr %0, i64 488
  tail call void @_ZNSt6localeD1Ev(ptr noundef nonnull align 8 dereferenceable(8) %27) #29
  %28 = getelementptr inbounds i8, ptr %0, i64 536
  tail call void @_ZNSt8ios_baseD2Ev(ptr noundef nonnull align 8 dereferenceable(264) %28) #29
  store ptr getelementptr inbounds inrange(-16, 48) (i8, ptr @_ZTVN5boost9date_time10time_facetINS_10posix_time5ptimeEcSt19ostreambuf_iteratorIcSt11char_traitsIcEEEE, i64 16), ptr %0, align 8, !tbaa !49
  %29 = getelementptr inbounds nuw i8, ptr %0, i64 392
  %30 = load ptr, ptr %29, align 8, !tbaa !13
  %31 = getelementptr inbounds nuw i8, ptr %0, i64 408
  %32 = icmp eq ptr %30, %31
  br i1 %32, label %_ZNKSt7__cxx1112basic_stringIcSt11char_traitsIcESaIcEE11_M_is_localEv.exit.thread.i.i.i.i, label %_ZNKSt7__cxx1112basic_stringIcSt11char_traitsIcESaIcEE11_M_is_localEv.exit.i.i.i.i

_ZNKSt7__cxx1112basic_stringIcSt11char_traitsIcESaIcEE11_M_is_localEv.exit.thread.i.i.i.i: ; preds = %_ZNSt7__cxx1119basic_ostringstreamIcSt11char_traitsIcESaIcEED1Ev.exit.i
  %33 = getelementptr inbounds nuw i8, ptr %0, i64 400
  %34 = load i64, ptr %33, align 8, !tbaa !16
  %35 = icmp ult i64 %34, 16
  tail call void @llvm.assume(i1 %35)
  br label %_ZN5boost3log11v2_mt_posix5sinks9anonymous23date_and_time_formatterD2Ev.exit

_ZNKSt7__cxx1112basic_stringIcSt11char_traitsIcESaIcEE11_M_is_localEv.exit.i.i.i.i: ; preds = %_ZNSt7__cxx1119basic_ostringstreamIcSt11char_traitsIcESaIcEED1Ev.exit.i
  %36 = load i64, ptr %31, align 8, !tbaa !15
  %37 = add i64 %36, 1
  tail call void @_ZdlPvm(ptr noundef %30, i64 noundef %37) #32
  br label %_ZN5boost3log11v2_mt_posix5sinks9anonymous23date_and_time_formatterD2Ev.exit

_ZN5boost3log11v2_mt_posix5sinks9anonymous23date_and_time_formatterD2Ev.exit: ; preds = %_ZNKSt7__cxx1112basic_stringIcSt11char_traitsIcESaIcEE11_M_is_localEv.exit.thread.i.i.i.i, %_ZNKSt7__cxx1112basic_stringIcSt11char_traitsIcESaIcEE11_M_is_localEv.exit.i.i.i.i
  tail call void @_ZN5boost9date_time10date_facetINS_9gregorian4dateEcSt19ostreambuf_iteratorIcSt11char_traitsIcEEED2Ev(ptr noundef nonnull align 8 dereferenceable(800) %0) #29
  ret void
}